Certificate:
    Data:
        Version: 3 (0x2)
        Serial Number: 1 (0x1)
    Signature Algorithm: sha256WithRSAEncryption
        Issuer: C=US, ST=AZ, L=Phoenix, O=SS, OU=group7, CN=group7.com
        Validity
            Not Before: Oct 18 08:39:59 2015 GMT
            Not After : Oct 17 08:39:59 2016 GMT
        Subject: C=US, ST=AZ, L=Phoenix, O=SS, OU=group7, CN=group7.com
        Subject Public Key Info:
            Public Key Algorithm: rsaEncryption
                Public-Key: (2048 bit)
                Modulus:
                    00:95:cf:87:7e:a0:59:b1:d6:14:d4:94:24:c0:93:
                    4a:aa:5e:ea:d2:b0:c0:d2:58:79:5d:7c:13:5f:51:
                    52:c5:6a:e5:29:49:e5:f3:23:6f:e8:2e:91:d7:12:
                    8a:f8:70:03:c2:8a:43:68:8c:39:e9:0c:0e:60:01:
                    3b:51:f0:6c:26:28:54:17:b0:09:83:17:3e:e5:24:
                    e3:61:19:56:58:ac:53:45:dc:2a:35:e6:21:a1:86:
                    9d:35:25:8f:a9:ac:f4:28:85:f9:5d:21:b1:06:3f:
                    e1:9d:8a:a5:60:54:3d:ae:e0:23:4a:96:76:a1:4d:
                    bf:b5:c5:86:88:33:07:cb:db:48:48:65:41:05:84:
                    b7:7a:2e:16:51:8a:68:4b:4d:a3:e0:11:f0:0c:dd:
                    e5:22:d2:60:2f:07:77:0c:38:07:4c:ed:23:78:90:
                    97:21:e6:7e:65:c7:3e:fc:55:dd:ec:51:f0:51:0c:
                    60:b1:9d:54:87:ff:cd:fc:1e:c0:18:3e:69:f0:bb:
                    55:77:ca:a7:b9:02:94:9f:09:8b:31:0d:dc:be:ff:
                    aa:64:f9:75:a2:5a:2d:1c:84:96:f2:76:61:38:9d:
                    81:42:05:1e:82:4c:48:d8:c1:1e:47:94:15:74:fc:
                    d5:20:17:26:b4:f5:29:30:bc:53:b7:63:b2:46:eb:
                    6a:c9
                Exponent: 65537 (0x10001)
        X509v3 extensions:
            X509v3 Basic Constraints: 
                CA:FALSE
            Netscape Comment: 
                OpenSSL Generated Certificate
            X509v3 Subject Key Identifier: 
                EE:96:40:F8:FF:9D:6D:7A:F7:E6:C9:AF:CF:D2:3A:6B:1C:ED:9C:87
            X509v3 Authority Key Identifier: 
                keyid:80:CC:41:DE:04:11:A8:97:65:58:CF:3C:86:29:F1:C4:38:57:B4:FC

    Signature Algorithm: sha256WithRSAEncryption
         a4:af:1d:cc:c0:5e:84:d4:f2:92:84:00:a8:3c:5b:02:a7:58:
         76:14:dd:d5:0e:7d:45:9e:91:a0:ae:1d:ba:41:45:07:d6:62:
         f5:ae:ec:48:ac:b4:f0:9e:20:ad:92:f2:53:bc:11:c7:5c:bd:
         69:b8:4e:4e:a0:6d:fb:67:15:b5:ac:bf:42:38:2a:82:04:cb:
         23:79:07:36:0d:82:16:6e:0c:d1:c0:c5:91:8f:ed:31:b0:b7:
         78:52:b5:4d:de:d2:c1:db:b7:22:ea:96:99:61:ca:68:4b:2a:
         5a:10:89:cc:02:63:56:a7:35:ba:29:63:97:6a:32:dd:27:2c:
         22:fb:53:7d:67:da:42:f1:b4:08:9a:e6:73:7c:d9:37:c9:80:
         ba:39:8d:0c:40:d7:f0:71:3b:ff:d4:6e:de:9e:4d:46:1a:fc:
         c3:c4:4f:cb:28:c1:f8:21:14:cb:24:db:e1:61:42:a6:a3:8d:
         3b:b3:79:32:ef:e2:6e:2b:2b:b3:42:45:5d:4b:74:cf:af:b1:
         52:ea:00:c7:9e:b7:25:87:b9:6e:0a:6a:b6:2b:68:62:52:4c:
         d5:33:59:22:08:9b:fb:22:4e:cd:49:40:1d:2d:06:15:fd:ee:
         f2:6d:ca:8d:6f:17:4e:2f:a1:7d:47:f0:e3:b6:f3:95:d6:02:
         26:7f:c9:c9
-----BEGIN CERTIFICATE-----
MIIDtDCCApygAwIBAgIBATANBgkqhkiG9w0BAQsFADBfMQswCQYDVQQGEwJVUzEL
MAkGA1UECAwCQVoxEDAOBgNVBAcMB1Bob2VuaXgxCzAJBgNVBAoMAlNTMQ8wDQYD
VQQLDAZncm91cDcxEzARBgNVBAMMCmdyb3VwNy5jb20wHhcNMTUxMDE4MDgzOTU5
WhcNMTYxMDE3MDgzOTU5WjBfMQswCQYDVQQGEwJVUzELMAkGA1UECBMCQVoxEDAO
BgNVBAcTB1Bob2VuaXgxCzAJBgNVBAoTAlNTMQ8wDQYDVQQLEwZncm91cDcxEzAR
BgNVBAMTCmdyb3VwNy5jb20wggEiMA0GCSqGSIb3DQEBAQUAA4IBDwAwggEKAoIB
AQCVz4d+oFmx1hTUlCTAk0qqXurSsMDSWHldfBNfUVLFauUpSeXzI2/oLpHXEor4
cAPCikNojDnpDA5gATtR8GwmKFQXsAmDFz7lJONhGVZYrFNF3Co15iGhhp01JY+p
rPQohfldIbEGP+GdiqVgVD2u4CNKlnahTb+1xYaIMwfL20hIZUEFhLd6LhZRimhL
TaPgEfAM3eUi0mAvB3cMOAdM7SN4kJch5n5lxz78Vd3sUfBRDGCxnVSH/838HsAY
Pmnwu1V3yqe5ApSfCYsxDdy+/6pk+XWiWi0chJbydmE4nYFCBR6CTEjYwR5HlBV0
/NUgFya09SkwvFO3Y7JG62rJAgMBAAGjezB5MAkGA1UdEwQCMAAwLAYJYIZIAYb4
QgENBB8WHU9wZW5TU0wgR2VuZXJhdGVkIENlcnRpZmljYXRlMB0GA1UdDgQWBBTu
lkD4/51tevfmya/P0jprHO2chzAfBgNVHSMEGDAWgBSAzEHeBBGol2VYzzyGKfHE
OFe0/DANBgkqhkiG9w0BAQsFAAOCAQEApK8dzMBehNTykoQAqDxbAqdYdhTd1Q59
RZ6RoK4dukFFB9Zi9a7sSKy08J4grZLyU7wRx1y9abhOTqBt+2cVtay/QjgqggTL
I3kHNg2CFm4M0cDFkY/tMbC3eFK1Td7Swdu3IuqWmWHKaEsqWhCJzAJjVqc1uilj
l2oy3ScsIvtTfWfaQvG0CJrmc3zZN8mAujmNDEDX8HE7/9Ru3p5NRhr8w8RPyyjB
+CEUyyTb4WFCpqONO7N5Mu/ibisrs0JFXUt0z6+xUuoAx563JYe5bgpqtitoYlJM
1TNZIgib+yJOzUlAHS0GFf3u8m3KjW8XTi+hfUfw47bzldYCJn/JyQ==
-----END CERTIFICATE-----
